target datalayout = "e-m:e-p270:32:32-p271:32:32-p272:64:64-i64:64-i128:128-f80:128-n8:16:32:64-S128"
target triple = "x86_64-pc-linux-gnu"

; Function Attrs: mustprogress nounwind uwtable
define hidden noundef zeroext i1 @_ZN5ceres8internal25AreJacobianColumnsOrderedENS_16LinearSolverTypeENS_18PreconditionerTypeENS_30SparseLinearAlgebraLibraryTypeENS_24LinearSolverOrderingTypeE(i32 noundef %0, i32 noundef %1, i32 noundef %2, i32 noundef %3) #1 {
  %5 = alloca i1, align 1
  %6 = alloca i32, align 4
  %7 = alloca i32, align 4
  %8 = alloca i32, align 4
  %9 = alloca i32, align 4
  store i32 %0, ptr %6, align 4, !tbaa !121
  store i32 %1, ptr %7, align 4, !tbaa !164
  store i32 %2, ptr %8, align 4, !tbaa !123
  store i32 %3, ptr %9, align 4, !tbaa !125
  %10 = load i32, ptr %8, align 4, !tbaa !123
  %11 = icmp eq i32 %10, 0
  br i1 %11, label %12, label %30

12:                                               ; preds = %4
  %13 = load i32, ptr %6, align 4, !tbaa !121
  %14 = icmp eq i32 %13, 2
  br i1 %14, label %21, label %15

15:                                               ; preds = %12
  %16 = load i32, ptr %6, align 4, !tbaa !121
  %17 = icmp eq i32 %16, 6
  br i1 %17, label %18, label %22

18:                                               ; preds = %15
  %19 = load i32, ptr %7, align 4, !tbaa !164
  %20 = icmp eq i32 %19, 6
  br i1 %20, label %21, label %22

21:                                               ; preds = %18, %12
  store i1 true, ptr %5, align 1
  br label %52

22:                                               ; preds = %18, %15
  %23 = load i32, ptr %6, align 4, !tbaa !121
  %24 = icmp eq i32 %23, 4
  br i1 %24, label %25, label %29

25:                                               ; preds = %22
  %26 = load i32, ptr %9, align 4, !tbaa !125
  %27 = icmp eq i32 %26, 0
  br i1 %27, label %28, label %29

28:                                               ; preds = %25
  store i1 true, ptr %5, align 1
  br label %52

29:                                               ; preds = %25, %22
  store i1 false, ptr %5, align 1
  br label %52

30:                                               ; preds = %4
  %31 = load i32, ptr %8, align 4, !tbaa !123
  %32 = icmp eq i32 %31, 1
  br i1 %32, label %33, label %47

33:                                               ; preds = %30
  %34 = load i32, ptr %6, align 4, !tbaa !121
  %35 = icmp eq i32 %34, 2
  br i1 %35, label %45, label %36

36:                                               ; preds = %33
  %37 = load i32, ptr %6, align 4, !tbaa !121
  %38 = icmp eq i32 %37, 4
  br i1 %38, label %45, label %39

39:                                               ; preds = %36
  %40 = load i32, ptr %6, align 4, !tbaa !121
  %41 = icmp eq i32 %40, 6
  br i1 %41, label %42, label %46

42:                                               ; preds = %39
  %43 = load i32, ptr %7, align 4, !tbaa !164
  %44 = icmp eq i32 %43, 6
  br i1 %44, label %45, label %46

45:                                               ; preds = %42, %36, %33
  store i1 true, ptr %5, align 1
  br label %52

46:                                               ; preds = %42, %39
  store i1 false, ptr %5, align 1
  br label %52

47:                                               ; preds = %30
  %48 = load i32, ptr %8, align 4, !tbaa !123
  %49 = icmp eq i32 %48, 2
  br i1 %49, label %50, label %51

50:                                               ; preds = %47
  store i1 false, ptr %5, align 1
  br label %52

51:                                               ; preds = %47
  store i1 false, ptr %5, align 1
  br label %52

52:                                               ; preds = %51, %50, %46, %45, %29, %28, %21
  %53 = load i1, ptr %5, align 1
  ret i1 %53
}