; Function Attrs: mustprogress nofree norecurse nosync nounwind willreturn memory(none) uwtable
define hidden noundef zeroext i1 @_ZN5ceres8internal25AreJacobianColumnsOrderedENS_16LinearSolverTypeENS_18PreconditionerTypeENS_30SparseLinearAlgebraLibraryTypeENS_24LinearSolverOrderingTypeE(i32 noundef %0, i32 noundef %1, i32 noundef %2, i32 noundef %3) local_unnamed_addr #9 {
  switch i32 %2, label %17 [
    i32 0, label %5
    i32 1, label %13
  ]

5:                                                ; preds = %4
  %6 = icmp eq i32 %0, 2
  br i1 %6, label %17, label %7

7:                                                ; preds = %5
  %8 = icmp eq i32 %0, 6
  %9 = icmp eq i32 %1, 6
  %or.cond = and i1 %8, %9
  br i1 %or.cond, label %17, label %10

10:                                               ; preds = %7
  %11 = icmp eq i32 %0, 4
  %12 = icmp eq i32 %3, 0
  %or.cond3 = and i1 %11, %12
  br label %17

13:                                               ; preds = %4
  switch i32 %0, label %14 [
    i32 4, label %17
    i32 2, label %17
  ]

14:                                               ; preds = %13
  %15 = icmp eq i32 %0, 6
  %16 = icmp eq i32 %1, 6
  %or.cond7 = and i1 %15, %16
  br label %17

17:                                               ; preds = %14, %4, %13, %13, %10, %5, %7
  %.0 = phi i1 [ true, %7 ], [ true, %5 ], [ %or.cond3, %10 ], [ true, %13 ], [ true, %13 ], [ false, %4 ], [ %or.cond7, %14 ]
  ret i1 %.0
}